target datalayout = "e-m:e-p270:32:32-p271:32:32-p272:64:64-i64:64-i128:128-f80:128-n8:16:32:64-S128"
target triple = "x86_64-pc-linux-gnu"

%"struct.Luau::TypePackIterator" = type { ptr, ptr, i64, ptr }

; Function Attrs: mustprogress nounwind uwtable
define dso_local noundef zeroext i1 @_ZN4Luau16TypePackIteratoreqERKS0_(ptr noundef nonnull align 8 dereferenceable(32) %0, ptr noundef nonnull align 8 dereferenceable(32) %1) #7 align 2 {
  %3 = alloca ptr, align 8
  %4 = alloca ptr, align 8
  store ptr %0, ptr %3, align 8, !tbaa !71
  store ptr %1, ptr %4, align 8, !tbaa !71
  %5 = load ptr, ptr %3, align 8
  %6 = getelementptr inbounds nuw %"struct.Luau::TypePackIterator", ptr %5, i32 0, i32 1
  %7 = load ptr, ptr %6, align 8, !tbaa !78
  %8 = load ptr, ptr %4, align 8, !tbaa !71
  %9 = getelementptr inbounds nuw %"struct.Luau::TypePackIterator", ptr %8, i32 0, i32 1
  %10 = load ptr, ptr %9, align 8, !tbaa !78
  %11 = icmp eq ptr %7, %10
  br i1 %11, label %12, label %19

12:                                               ; preds = %2
  %13 = getelementptr inbounds nuw %"struct.Luau::TypePackIterator", ptr %5, i32 0, i32 2
  %14 = load i64, ptr %13, align 8, !tbaa !79
  %15 = load ptr, ptr %4, align 8, !tbaa !71
  %16 = getelementptr inbounds nuw %"struct.Luau::TypePackIterator", ptr %15, i32 0, i32 2
  %17 = load i64, ptr %16, align 8, !tbaa !79
  %18 = icmp eq i64 %14, %17
  br label %19

19:                                               ; preds = %12, %2
  %20 = phi i1 [ false, %2 ], [ %18, %12 ]
  ret i1 %20
}